; Function Attrs: nounwind sspstrong uwtable
define internal void @replication_done(ptr noundef %opaque, i32 noundef %ret) #0 {
entry:
  %opaque1 = getelementptr inbounds nuw i8, ptr %opaque, i64 24
  %0 = load ptr, ptr %opaque1, align 8
  %cmp = icmp eq i32 %ret, 0
  %stage = getelementptr inbounds nuw i8, ptr %0, i64 4
  br i1 %cmp, label %if.then, label %if.else

if.then:                                          ; preds = %entry
  store i32 4, ptr %stage, align 4
  tail call void @bdrv_graph_wrlock(ptr noundef null) #8
  %secondary_disk = getelementptr inbounds nuw i8, ptr %0, i64 24
  %1 = load ptr, ptr %secondary_disk, align 8
  tail call void @bdrv_unref_child(ptr noundef nonnull %opaque, ptr noundef %1) #8
  store ptr null, ptr %secondary_disk, align 8
  %hidden_disk = getelementptr inbounds nuw i8, ptr %0, i64 16
  %2 = load ptr, ptr %hidden_disk, align 8
  tail call void @bdrv_unref_child(ptr noundef nonnull %opaque, ptr noundef %2) #8
  store ptr null, ptr %hidden_disk, align 8
  tail call void @bdrv_graph_wrunlock(ptr noundef null) #8
  br label %if.end

if.else:                                          ; preds = %entry
  store i32 3, ptr %stage, align 4
  br label %if.end

if.end:                                           ; preds = %if.else, %if.then
  %.sink = phi i32 [ 0, %if.then ], [ -5, %if.else ]
  %3 = getelementptr inbounds nuw i8, ptr %0, i64 68
  store i32 %.sink, ptr %3, align 4
  ret void
}